SF:/Users/jong/playwright-ast-coverage/.codex/worktrees/gemini-2/crates/no-mistakes-core/src/ast.rs
FN:30,_RNvNtCs2bNY6PhP5aa_16no_mistakes_core3ast9span_text
FN:56,_RNvNtCs2bNY6PhP5aa_16no_mistakes_core3ast15expression_path
FN:36,_RNvNtCs2bNY6PhP5aa_16no_mistakes_core3ast21template_literal_text
FN:8,_RINvNtCs2bNY6PhP5aa_16no_mistakes_core3ast12with_programuNCNvNtB2_5testss_45parser_reports_invalid_sources_and_extensions0EB4_
FN:8,_RINvNtCs2bNY6PhP5aa_16no_mistakes_core3ast12with_programuNCNvNtB2_5testss_45parser_reports_invalid_sources_and_extensionss_0EB4_
FN:15,_RNCINvNtCs2bNY6PhP5aa_16no_mistakes_core3ast12with_programuNCNvNtB4_5testss_45parser_reports_invalid_sources_and_extensions0E0B6_
FN:22,_RNCINvNtCs2bNY6PhP5aa_16no_mistakes_core3ast12with_programuNCNvNtB4_5testss_45parser_reports_invalid_sources_and_extensions0Es_0B6_
FN:15,_RNCINvNtCs2bNY6PhP5aa_16no_mistakes_core3ast12with_programuNCNvNtB4_5testss_45parser_reports_invalid_sources_and_extensionss_0E0B6_
FN:22,_RNCINvNtCs2bNY6PhP5aa_16no_mistakes_core3ast12with_programuNCNvNtB4_5testss_45parser_reports_invalid_sources_and_extensionss_0Es_0B6_
FN:76,_RNvNtNtCs2bNY6PhP5aa_16no_mistakes_core3ast5testss_45parser_reports_invalid_sources_and_extensions
FNDA:1,_RNvNtCs2bNY6PhP5aa_16no_mistakes_core3ast9span_text
FNDA:0,_RNvNtCs2bNY6PhP5aa_16no_mistakes_core3ast15expression_path
FNDA:0,_RNvNtCs2bNY6PhP5aa_16no_mistakes_core3ast21template_literal_text
FNDA:1,_RINvNtCs2bNY6PhP5aa_16no_mistakes_core3ast12with_programuNCNvNtB2_5testss_45parser_reports_invalid_sources_and_extensions0EB4_
FNDA:1,_RINvNtCs2bNY6PhP5aa_16no_mistakes_core3ast12with_programuNCNvNtB2_5testss_45parser_reports_invalid_sources_and_extensionss_0EB4_
FNDA:1,_RNCINvNtCs2bNY6PhP5aa_16no_mistakes_core3ast12with_programuNCNvNtB4_5testss_45parser_reports_invalid_sources_and_extensions0E0B6_
FNDA:0,_RNCINvNtCs2bNY6PhP5aa_16no_mistakes_core3ast12with_programuNCNvNtB4_5testss_45parser_reports_invalid_sources_and_extensions0Es_0B6_
FNDA:0,_RNCINvNtCs2bNY6PhP5aa_16no_mistakes_core3ast12with_programuNCNvNtB4_5testss_45parser_reports_invalid_sources_and_extensionss_0E0B6_
FNDA:1,_RNCINvNtCs2bNY6PhP5aa_16no_mistakes_core3ast12with_programuNCNvNtB4_5testss_45parser_reports_invalid_sources_and_extensionss_0Es_0B6_
FNDA:1,_RNvNtNtCs2bNY6PhP5aa_16no_mistakes_core3ast5testss_45parser_reports_invalid_sources_and_extensions
FNF:7
FNH:5
DA:8,2
DA:9,2
DA:10,2
DA:11,2
DA:12,2
DA:13,2
DA:14,2
DA:15,2
DA:16,1
DA:18,1
DA:19,1
DA:20,1
DA:21,1
DA:22,1
DA:23,1
DA:24,1
DA:25,0
DA:27,0
DA:28,2
DA:30,1
DA:31,1
DA:32,1
DA:33,1
DA:34,1
DA:36,0
DA:37,0
DA:38,0
DA:39,0
DA:40,0
DA:41,0
DA:42,0
DA:43,0
DA:44,0
DA:45,0
DA:47,0
DA:48,0
DA:49,0
DA:50,0
DA:51,0
DA:53,0
DA:54,0
DA:56,0
DA:57,0
DA:58,0
DA:59,0
DA:60,0
DA:61,0
DA:62,0
DA:64,0
DA:65,0
DA:67,0
DA:69,0
DA:76,1
DA:77,1
DA:78,1
DA:79,1
DA:80,1
DA:82,1
DA:83,1
DA:84,1
DA:85,1
DA:87,1
DA:88,1
BRF:0
BRH:0
LF:65
LH:35
end_of_record
SF:/Users/jong/playwright-ast-coverage/.codex/worktrees/gemini-2/crates/no-mistakes-core/src/config.rs
FN:21,_RNvNtCs2bNY6PhP5aa_16no_mistakes_core6config16find_config_path
FN:79,_RNvNtCs2bNY6PhP5aa_16no_mistakes_core6config19jsonc_parse_options
FN:91,_RNvNtCs2bNY6PhP5aa_16no_mistakes_core6config7resolve
FN:121,_RNvNtNtCs2bNY6PhP5aa_16no_mistakes_core6config5testss_21test_load_config_json
FN:111,_RNvNtNtCs2bNY6PhP5aa_16no_mistakes_core6config5testss_21test_load_config_yaml
FN:148,_RNvNtNtCs2bNY6PhP5aa_16no_mistakes_core6config5testss_25test_load_config_explicit
FN:131,_RNvNtNtCs2bNY6PhP5aa_16no_mistakes_core6config5testss_25test_load_config_priority
FN:158,_RNvNtNtCs2bNY6PhP5aa_16no_mistakes_core6config5testss_39test_parse_config_unsupported_extension
FN:141,_RNvNtNtCs2bNY6PhP5aa_16no_mistakes_core6config5testss_40test_load_config_missing_returns_default
FN:8,_RINvNtCs2bNY6PhP5aa_16no_mistakes_core6config11load_configNtNtB2_5tests10TestConfigEB4_
FN:61,_RINvNtCs2bNY6PhP5aa_16no_mistakes_core6config12parse_configNtNtB2_5tests10TestConfigEB4_
FN:62,_RNCINvNtCs2bNY6PhP5aa_16no_mistakes_core6config12parse_configNtNtB4_5tests10TestConfigE0B6_
FN:53,_RNCNvNtCs2bNY6PhP5aa_16no_mistakes_core6config16find_config_path0B5_
FNDA:5,_RNvNtCs2bNY6PhP5aa_16no_mistakes_core6config16find_config_path
FNDA:0,_RNvNtCs2bNY6PhP5aa_16no_mistakes_core6config19jsonc_parse_options
FNDA:1,_RNvNtCs2bNY6PhP5aa_16no_mistakes_core6config7resolve
FNDA:1,_RNvNtNtCs2bNY6PhP5aa_16no_mistakes_core6config5testss_21test_load_config_json
FNDA:1,_RNvNtNtCs2bNY6PhP5aa_16no_mistakes_core6config5testss_21test_load_config_yaml
FNDA:1,_RNvNtNtCs2bNY6PhP5aa_16no_mistakes_core6config5testss_25test_load_config_explicit
FNDA:1,_RNvNtNtCs2bNY6PhP5aa_16no_mistakes_core6config5testss_25test_load_config_priority
FNDA:1,_RNvNtNtCs2bNY6PhP5aa_16no_mistakes_core6config5testss_39test_parse_config_unsupported_extension
FNDA:1,_RNvNtNtCs2bNY6PhP5aa_16no_mistakes_core6config5testss_40test_load_config_missing_returns_default
FNDA:5,_RINvNtCs2bNY6PhP5aa_16no_mistakes_core6config11load_configNtNtB2_5tests10TestConfigEB4_
FNDA:5,_RINvNtCs2bNY6PhP5aa_16no_mistakes_core6config12parse_configNtNtB2_5tests10TestConfigEB4_
FNDA:5,_RNCINvNtCs2bNY6PhP5aa_16no_mistakes_core6config12parse_configNtNtB4_5tests10TestConfigE0B6_
FNDA:0,_RNCNvNtCs2bNY6PhP5aa_16no_mistakes_core6config16find_config_path0B5_
FNF:13
FNH:11
DA:8,5
DA:9,5
DA:10,5
DA:11,5
DA:12,5
DA:13,5
DA:14,1
DA:17,4
DA:18,4
DA:19,5
DA:21,5
DA:22,5
DA:23,5
DA:24,5
DA:25,5
DA:26,5
DA:27,1
DA:28,1
DA:29,0
DA:30,1
DA:31,1
DA:32,4
DA:34,4
DA:35,4
DA:36,16
DA:37,16
DA:38,16
DA:39,3
DA:40,13
DA:42,4
DA:43,3
DA:44,1
DA:47,4
DA:48,1
DA:49,3
DA:51,0
DA:52,0
DA:53,0
DA:54,0
DA:55,0
DA:56,0
DA:59,5
DA:61,5
DA:62,5
DA:63,5
DA:64,5
DA:65,2
DA:66,1
DA:67,0
DA:68,0
DA:69,0
DA:70,1
DA:73,0
DA:77,5
DA:79,0
DA:80,0
DA:81,0
DA:82,0
DA:83,0
DA:84,0
DA:85,0
DA:86,0
DA:87,0
DA:88,0
DA:89,0
DA:91,1
DA:92,1
DA:93,0
DA:95,1
DA:97,1
DA:111,1
DA:112,1
DA:113,1
DA:114,1
DA:116,1
DA:117,1
DA:118,1
DA:121,1
DA:122,1
DA:123,1
DA:124,1
DA:126,1
DA:127,1
DA:128,1
DA:131,1
DA:132,1
DA:133,1
DA:134,1
DA:136,1
DA:137,1
DA:138,1
DA:141,1
DA:142,1
DA:143,1
DA:144,1
DA:145,1
DA:148,1
DA:149,1
DA:150,1
DA:151,1
DA:153,1
DA:154,1
DA:155,1
DA:158,1
DA:159,1
DA:160,1
DA:161,1
BRF:0
BRH:0
LF:109
LH:85
end_of_record
SF:/Users/jong/playwright-ast-coverage/.codex/worktrees/gemini-2/crates/no-mistakes-core/src/routes.rs
FN:102,_RNvNtNtCs2bNY6PhP5aa_16no_mistakes_core6routes5testss_25test_collect_routes_empty
FN:92,_RNvNtNtCs2bNY6PhP5aa_16no_mistakes_core6routes5testss_26test_path_to_route_pattern
FN:12,_RNvNtCs2bNY6PhP5aa_16no_mistakes_core6routes14collect_routes
FN:45,_RNvNtCs2bNY6PhP5aa_16no_mistakes_core6routes21path_to_route_pattern
FN:41,_RNCNCNvNtCs2bNY6PhP5aa_16no_mistakes_core6routes14collect_routess1_00B7_
FN:20,_RNCNvNtCs2bNY6PhP5aa_16no_mistakes_core6routes14collect_routes0B5_
FN:28,_RNCNvNtCs2bNY6PhP5aa_16no_mistakes_core6routes14collect_routess0_0B5_
FN:41,_RNCNvNtCs2bNY6PhP5aa_16no_mistakes_core6routes14collect_routess1_0B5_
FN:27,_RNCNvNtCs2bNY6PhP5aa_16no_mistakes_core6routes14collect_routess_0B5_
FN:48,_RNCNvNtCs2bNY6PhP5aa_16no_mistakes_core6routes21path_to_route_pattern0B5_
FNDA:1,_RNvNtNtCs2bNY6PhP5aa_16no_mistakes_core6routes5testss_25test_collect_routes_empty
FNDA:1,_RNvNtNtCs2bNY6PhP5aa_16no_mistakes_core6routes5testss_26test_path_to_route_pattern
FNDA:1,_RNvNtCs2bNY6PhP5aa_16no_mistakes_core6routes14collect_routes
FNDA:6,_RNvNtCs2bNY6PhP5aa_16no_mistakes_core6routes21path_to_route_pattern
FNDA:0,_RNCNCNvNtCs2bNY6PhP5aa_16no_mistakes_core6routes14collect_routess1_00B7_
FNDA:1,_RNCNvNtCs2bNY6PhP5aa_16no_mistakes_core6routes14collect_routes0B5_
FNDA:0,_RNCNvNtCs2bNY6PhP5aa_16no_mistakes_core6routes14collect_routess0_0B5_
FNDA:0,_RNCNvNtCs2bNY6PhP5aa_16no_mistakes_core6routes14collect_routess1_0B5_
FNDA:0,_RNCNvNtCs2bNY6PhP5aa_16no_mistakes_core6routes14collect_routess_0B5_
FNDA:6,_RNCNvNtCs2bNY6PhP5aa_16no_mistakes_core6routes21path_to_route_pattern0B5_
FNF:10
FNH:6
DA:12,1
DA:13,1
DA:14,0
DA:15,1
DA:17,1
DA:18,1
DA:19,1
DA:20,1
DA:22,1
DA:23,1
DA:24,1
DA:25,0
DA:27,0
DA:28,0
DA:29,0
DA:30,0
DA:31,0
DA:33,0
DA:34,0
DA:35,0
DA:36,0
DA:37,0
DA:38,0
DA:41,1
DA:42,1
DA:43,1
DA:45,6
DA:46,6
DA:47,6
DA:48,6
DA:49,6
DA:51,6
DA:52,9
DA:53,9
DA:54,0
DA:56,9
DA:58,9
DA:59,1
DA:60,8
DA:62,8
DA:63,1
DA:64,1
DA:65,7
DA:67,7
DA:68,1
DA:69,1
DA:70,6
DA:72,6
DA:73,1
DA:74,1
DA:75,5
DA:77,5
DA:80,6
DA:81,1
DA:83,5
DA:85,6
DA:92,1
DA:93,1
DA:94,1
DA:95,1
DA:96,1
DA:97,1
DA:98,1
DA:99,1
DA:102,1
DA:103,1
DA:104,1
DA:105,1
DA:106,1
BRF:0
BRH:0
LF:75
LH:57
end_of_record