SF:/Users/jong/playwright-ast-coverage/.codex/worktrees/gemini-2/crates/next-to-fetch/src/main.rs
FN:167,_RNCNvCs6XTquqlr24u_13next_to_fetch12analyze_file0B3_
FN:115,_RNCNvCs6XTquqlr24u_13next_to_fetch4main0B3_
FN:67,_RNCNvXCs6XTquqlr24u_13next_to_fetchNtB4_12FetchVisitorNtNtNtCsgD2vp664KNp_13oxc_ast_visit9generated5visit5Visit21visit_call_expression0B4_
FN:148,_RNvCs6XTquqlr24u_13next_to_fetch12analyze_file
FN:190,_RNvCs6XTquqlr24u_13next_to_fetch14resolve_import
FN:209,_RNvCs6XTquqlr24u_13next_to_fetch15relative_string
FN:216,_RNvCs6XTquqlr24u_13next_to_fetch17print_text_report
FN:97,_RNvCs6XTquqlr24u_13next_to_fetch36extract_string_literal_from_argument
FN:105,_RNvCs6XTquqlr24u_13next_to_fetch4main
FN:60,_RNvXCs6XTquqlr24u_13next_to_fetchNtB2_12FetchVisitorNtNtNtCsgD2vp664KNp_13oxc_ast_visit9generated5visit5Visit21visit_call_expression
FN:167,_RNCNvCsg9WVmlkJPbd_13next_to_fetch12analyze_file0B3_
FN:115,_RNCNvCsg9WVmlkJPbd_13next_to_fetch4main0B3_
FN:67,_RNCNvXCsg9WVmlkJPbd_13next_to_fetchNtB4_12FetchVisitorNtNtNtCsgD2vp664KNp_13oxc_ast_visit9generated5visit5Visit21visit_call_expression0B4_
FN:148,_RNvCsg9WVmlkJPbd_13next_to_fetch12analyze_file
FN:190,_RNvCsg9WVmlkJPbd_13next_to_fetch14resolve_import
FN:209,_RNvCsg9WVmlkJPbd_13next_to_fetch15relative_string
FN:216,_RNvCsg9WVmlkJPbd_13next_to_fetch17print_text_report
FN:97,_RNvCsg9WVmlkJPbd_13next_to_fetch36extract_string_literal_from_argument
FN:105,_RNvCsg9WVmlkJPbd_13next_to_fetch4main
FN:60,_RNvXCsg9WVmlkJPbd_13next_to_fetchNtB2_12FetchVisitorNtNtNtCsgD2vp664KNp_13oxc_ast_visit9generated5visit5Visit21visit_call_expression
FNDA:7,_RNCNvCs6XTquqlr24u_13next_to_fetch12analyze_file0B3_
FNDA:2,_RNCNvCs6XTquqlr24u_13next_to_fetch4main0B3_
FNDA:0,_RNCNvXCs6XTquqlr24u_13next_to_fetchNtB4_12FetchVisitorNtNtNtCsgD2vp664KNp_13oxc_ast_visit9generated5visit5Visit21visit_call_expression0B4_
FNDA:7,_RNvCs6XTquqlr24u_13next_to_fetch12analyze_file
FNDA:2,_RNvCs6XTquqlr24u_13next_to_fetch14resolve_import
FNDA:12,_RNvCs6XTquqlr24u_13next_to_fetch15relative_string
FNDA:2,_RNvCs6XTquqlr24u_13next_to_fetch17print_text_report
FNDA:5,_RNvCs6XTquqlr24u_13next_to_fetch36extract_string_literal_from_argument
FNDA:4,_RNvCs6XTquqlr24u_13next_to_fetch4main
FNDA:7,_RNvXCs6XTquqlr24u_13next_to_fetchNtB2_12FetchVisitorNtNtNtCsgD2vp664KNp_13oxc_ast_visit9generated5visit5Visit21visit_call_expression
FNDA:0,_RNCNvCsg9WVmlkJPbd_13next_to_fetch12analyze_file0B3_
FNDA:0,_RNCNvCsg9WVmlkJPbd_13next_to_fetch4main0B3_
FNDA:0,_RNCNvXCsg9WVmlkJPbd_13next_to_fetchNtB4_12FetchVisitorNtNtNtCsgD2vp664KNp_13oxc_ast_visit9generated5visit5Visit21visit_call_expression0B4_
FNDA:0,_RNvCsg9WVmlkJPbd_13next_to_fetch12analyze_file
FNDA:0,_RNvCsg9WVmlkJPbd_13next_to_fetch14resolve_import
FNDA:0,_RNvCsg9WVmlkJPbd_13next_to_fetch15relative_string
FNDA:0,_RNvCsg9WVmlkJPbd_13next_to_fetch17print_text_report
FNDA:0,_RNvCsg9WVmlkJPbd_13next_to_fetch36extract_string_literal_from_argument
FNDA:0,_RNvCsg9WVmlkJPbd_13next_to_fetch4main
FNDA:0,_RNvXCsg9WVmlkJPbd_13next_to_fetchNtB2_12FetchVisitorNtNtNtCsgD2vp664KNp_13oxc_ast_visit9generated5visit5Visit21visit_call_expression
FNF:10
FNH:9
DA:60,7
DA:61,7
DA:62,7
DA:63,5
DA:64,5
DA:66,5
DA:67,5
DA:68,0
DA:70,5
DA:71,2
DA:72,2
DA:73,2
DA:74,2
DA:75,2
DA:76,2
DA:77,2
DA:78,2
DA:79,0
DA:80,0
DA:81,0
DA:83,0
DA:84,3
DA:86,5
DA:87,5
DA:88,5
DA:89,5
DA:90,5
DA:91,2
DA:92,0
DA:93,7
DA:94,7
DA:97,5
DA:98,5
DA:99,5
DA:100,0
DA:101,0
DA:103,5
DA:105,4
DA:106,4
DA:107,4
DA:108,4
DA:109,1
DA:110,3
DA:111,3
DA:112,3
DA:113,3
DA:115,3
DA:116,3
DA:117,3
DA:118,0
DA:119,3
DA:120,3
DA:121,3
DA:123,3
DA:124,5
DA:125,5
DA:126,5
DA:127,5
DA:129,5
DA:130,5
DA:132,5
DA:133,5
DA:134,5
DA:135,5
DA:136,5
DA:139,3
DA:140,1
DA:141,2
DA:142,2
DA:143,2
DA:145,3
DA:146,4
DA:148,7
DA:149,7
DA:150,7
DA:151,7
DA:152,7
DA:153,7
DA:154,7
DA:155,0
DA:156,7
DA:158,7
DA:159,7
DA:160,0
DA:161,7
DA:162,7
DA:164,7
DA:165,7
DA:167,7
DA:168,7
DA:169,7
DA:170,7
DA:171,7
DA:172,7
DA:173,7
DA:174,7
DA:177,9
DA:178,9
DA:179,2
DA:180,2
DA:181,2
DA:182,2
DA:183,7
DA:185,7
DA:187,7
DA:188,7
DA:190,2
DA:191,2
DA:192,2
DA:193,2
DA:194,2
DA:195,4
DA:196,4
DA:197,4
DA:198,2
DA:199,2
DA:200,2
DA:201,2
DA:202,0
DA:203,2
DA:205,0
DA:206,0
DA:207,2
DA:209,12
DA:210,12
DA:211,12
DA:212,12
DA:213,12
DA:214,12
DA:216,2
DA:217,3
DA:218,3
DA:219,3
DA:220,0
DA:221,0
DA:222,3
DA:223,3
DA:224,3
DA:226,3
DA:228,2
BRF:0
BRH:0
LF:144
LH:126
end_of_record